target datalayout = "e-m:e-p270:32:32-p271:32:32-p272:64:64-i64:64-i128:128-f80:128-n8:16:32:64-S128"
target triple = "x86_64-pc-linux-gnu"

%struct.CbsP_Par_t_ = type { i32, i32, i32, i32, i32, i32, i32, i32, i32, i32, i32, i32, i32, i32, i32, i32, i32, i32, i32, i32, i32, i32, i32, i32, i64, i64, i64, i64, i64, i64, i64, i64, i64, i32, i32, i32 }
%struct.CbsP_Man_t_ = type { %struct.CbsP_Par_t_, ptr, %struct.CbsP_Que_t_, %struct.CbsP_Que_t_, %struct.CbsP_Que_t_, ptr, ptr, ptr, ptr, ptr, i32, i32, i32, i32, i32, i32, i32, i64, i64, i64, i64 }
%struct.CbsP_Que_t_ = type { i32, i32, i32, ptr }

; Function Attrs: inlinehint nounwind uwtable
define internal i32 @CbsP_ManCheckPropLimits(ptr noundef %0) #6 {
  %2 = alloca ptr, align 8
  store ptr %0, ptr %2, align 8, !tbaa !36
  %3 = load ptr, ptr %2, align 8, !tbaa !36
  %4 = getelementptr inbounds nuw %struct.CbsP_Man_t_, ptr %3, i32 0, i32 0
  %5 = getelementptr inbounds nuw %struct.CbsP_Par_t_, ptr %4, i32 0, i32 14
  %6 = load i32, ptr %5, align 8, !tbaa !100
  %7 = load ptr, ptr %2, align 8, !tbaa !36
  %8 = getelementptr inbounds nuw %struct.CbsP_Man_t_, ptr %7, i32 0, i32 0
  %9 = getelementptr inbounds nuw %struct.CbsP_Par_t_, ptr %8, i32 0, i32 35
  %10 = load i32, ptr %9, align 8, !tbaa !101
  %11 = icmp sgt i32 %6, %10
  %12 = zext i1 %11 to i32
  ret i32 %12
}

; Function Attrs: inlinehint nounwind uwtable
define internal i32 @CbsP_ManCheckLimits(ptr noundef %0) #6 {
  %2 = alloca ptr, align 8
  store ptr %0, ptr %2, align 8, !tbaa !36
  %3 = load ptr, ptr %2, align 8, !tbaa !36
  %4 = call i32 @CbsP_ManCheckPropLimits(ptr noundef %3)
  %5 = icmp ne i32 %4, 0
  br i1 %5, label %46, label %6

6:                                                ; preds = %1
  %7 = load ptr, ptr %2, align 8, !tbaa !36
  %8 = getelementptr inbounds nuw %struct.CbsP_Man_t_, ptr %7, i32 0, i32 0
  %9 = getelementptr inbounds nuw %struct.CbsP_Par_t_, ptr %8, i32 0, i32 12
  %10 = load i32, ptr %9, align 8, !tbaa !105
  %11 = load ptr, ptr %2, align 8, !tbaa !36
  %12 = getelementptr inbounds nuw %struct.CbsP_Man_t_, ptr %11, i32 0, i32 0
  %13 = getelementptr inbounds nuw %struct.CbsP_Par_t_, ptr %12, i32 0, i32 33
  %14 = load i32, ptr %13, align 8, !tbaa !111
  %15 = icmp sgt i32 %10, %14
  br i1 %15, label %46, label %16

16:                                               ; preds = %6
  %17 = load ptr, ptr %2, align 8, !tbaa !36
  %18 = getelementptr inbounds nuw %struct.CbsP_Man_t_, ptr %17, i32 0, i32 0
  %19 = getelementptr inbounds nuw %struct.CbsP_Par_t_, ptr %18, i32 0, i32 13
  %20 = load i32, ptr %19, align 4, !tbaa !112
  %21 = load ptr, ptr %2, align 8, !tbaa !36
  %22 = getelementptr inbounds nuw %struct.CbsP_Man_t_, ptr %21, i32 0, i32 0
  %23 = getelementptr inbounds nuw %struct.CbsP_Par_t_, ptr %22, i32 0, i32 34
  %24 = load i32, ptr %23, align 4, !tbaa !113
  %25 = icmp sgt i32 %20, %24
  br i1 %25, label %46, label %26

26:                                               ; preds = %16
  %27 = load ptr, ptr %2, align 8, !tbaa !36
  %28 = getelementptr inbounds nuw %struct.CbsP_Man_t_, ptr %27, i32 0, i32 0
  %29 = getelementptr inbounds nuw %struct.CbsP_Par_t_, ptr %28, i32 0, i32 4
  %30 = load i32, ptr %29, align 8, !tbaa !104
  %31 = load ptr, ptr %2, align 8, !tbaa !36
  %32 = getelementptr inbounds nuw %struct.CbsP_Man_t_, ptr %31, i32 0, i32 0
  %33 = getelementptr inbounds nuw %struct.CbsP_Par_t_, ptr %32, i32 0, i32 1
  %34 = load i32, ptr %33, align 4, !tbaa !114
  %35 = icmp sgt i32 %30, %34
  br i1 %35, label %46, label %36

36:                                               ; preds = %26
  %37 = load ptr, ptr %2, align 8, !tbaa !36
  %38 = getelementptr inbounds nuw %struct.CbsP_Man_t_, ptr %37, i32 0, i32 0
  %39 = getelementptr inbounds nuw %struct.CbsP_Par_t_, ptr %38, i32 0, i32 2
  %40 = load i32, ptr %39, align 8, !tbaa !110
  %41 = load ptr, ptr %2, align 8, !tbaa !36
  %42 = getelementptr inbounds nuw %struct.CbsP_Man_t_, ptr %41, i32 0, i32 0
  %43 = getelementptr inbounds nuw %struct.CbsP_Par_t_, ptr %42, i32 0, i32 0
  %44 = load i32, ptr %43, align 8, !tbaa !39
  %45 = icmp sgt i32 %40, %44
  br label %46

46:                                               ; preds = %36, %26, %16, %6, %1
  %47 = phi i1 [ true, %26 ], [ true, %16 ], [ true, %6 ], [ true, %1 ], [ %45, %36 ]
  %48 = zext i1 %47 to i32
  ret i32 %48
}