; Function Attrs: inlinehint mustprogress nofree norecurse nosync nounwind willreturn memory(argmem: read) uwtable
define internal fastcc range(i32 0, 2) i32 @CbsP_ManCheckLimits(ptr noundef readonly captures(none) %0) unnamed_addr #11 {
  %2 = getelementptr i8, ptr %0, i64 56
  %.val = load i32, ptr %2, align 8, !tbaa !90
  %3 = getelementptr i8, ptr %0, i64 176
  %.val9 = load i32, ptr %3, align 8, !tbaa !91
  %.not = icmp sgt i32 %.val, %.val9
  br i1 %.not, label %28, label %4

4:                                                ; preds = %1
  %5 = getelementptr inbounds nuw i8, ptr %0, i64 48
  %6 = load i32, ptr %5, align 8, !tbaa !95
  %7 = getelementptr inbounds nuw i8, ptr %0, i64 168
  %8 = load i32, ptr %7, align 8, !tbaa !96
  %9 = icmp sgt i32 %6, %8
  br i1 %9, label %28, label %10

10:                                               ; preds = %4
  %11 = getelementptr inbounds nuw i8, ptr %0, i64 52
  %12 = load i32, ptr %11, align 4, !tbaa !97
  %13 = getelementptr inbounds nuw i8, ptr %0, i64 172
  %14 = load i32, ptr %13, align 4, !tbaa !98
  %15 = icmp sgt i32 %12, %14
  br i1 %15, label %28, label %16

16:                                               ; preds = %10
  %17 = getelementptr inbounds nuw i8, ptr %0, i64 16
  %18 = load i32, ptr %17, align 8, !tbaa !99
  %19 = getelementptr inbounds nuw i8, ptr %0, i64 4
  %20 = load i32, ptr %19, align 4, !tbaa !100
  %21 = icmp sgt i32 %18, %20
  br i1 %21, label %28, label %22

22:                                               ; preds = %16
  %23 = getelementptr inbounds nuw i8, ptr %0, i64 8
  %24 = load i32, ptr %23, align 8, !tbaa !101
  %25 = load i32, ptr %0, align 8, !tbaa !20
  %26 = icmp sgt i32 %24, %25
  %27 = zext i1 %26 to i32
  br label %28

28:                                               ; preds = %22, %16, %10, %4, %1
  %29 = phi i32 [ 1, %16 ], [ 1, %10 ], [ 1, %4 ], [ 1, %1 ], [ %27, %22 ]
  ret i32 %29
}